target datalayout = "e-m:e-p270:32:32-p271:32:32-p272:64:64-i64:64-i128:128-f80:128-n8:16:32:64-S128"
target triple = "x86_64-pc-linux-gnu"

%struct.ssl_st = type { i32, i16, i16, ptr, ptr, ptr, ptr, ptr, i32, i32, ptr, ptr, i32, i32, ptr, ptr, ptr, ptr, ptr, ptr, ptr, ptr, i32, i32, [32 x i8], ptr, ptr, ptr, ptr, ptr, ptr, ptr, i64, %struct.crypto_ex_data_st, ptr, i32, i32, i32, i32, i16, ptr, i32, i64, ptr, ptr, ptr, ptr, ptr, ptr, i32, i32, ptr, ptr, i8, i8, i32 }
%struct.crypto_ex_data_st = type { ptr }
%struct.ssl3_state_st = type { [8 x i8], [8 x i8], [32 x i8], [32 x i8], i8, i8, %struct.ssl3_buffer_st, %struct.ssl3_buffer_st, %struct.ssl3_record_st, i8, i32, i32, i32, i32, ptr, ptr, %struct.env_md_ctx_st, %struct.env_md_ctx_st, i8, i32, [2 x i8], i32, i8, i8, ptr, ptr, ptr, %struct.anon, [64 x i8], i8, [64 x i8], i8, i32, i32, ptr, i64, ptr, i64, i8, [64 x i8] }
%struct.ssl3_buffer_st = type { ptr, i16, i16, i16 }
%struct.ssl3_record_st = type { i8, i16, ptr }
%struct.env_md_ctx_st = type { ptr, ptr, ptr, ptr }
%struct.anon = type { [64 x i8], i32, [64 x i8], i32, i64, i32, ptr, i32, i32, %union.anon, %union.anon.0, i8, i32, ptr, ptr, i64, ptr, i8, i8, i8, i8, i32, i8, ptr, i64, i8, ptr, i8, i8, i8, %struct.ssl_ecdh_ctx_st, ptr, i16 }
%union.anon = type { i32 }
%union.anon.0 = type { i16 }
%struct.ssl_ecdh_ctx_st = type { ptr, ptr }
%struct.cbs_st = type { ptr, i64 }

@.str = private unnamed_addr constant [120 x i8] c"generated/home/dtcxzyw/WorkSpace/Projects/compilers/llvm-opt-benchmark/bench/libquic/libquic/boringssl/ssl/tls_record.c\00", align 1

; Function Attrs: nounwind uwtable
define hidden i32 @tls_open_record(ptr noundef %0, ptr noundef %1, ptr noundef %2, ptr noundef %3, ptr noundef %4, ptr noundef %5, i64 noundef %6, ptr noundef %7, i64 noundef %8) #0 {
  %10 = alloca i32, align 4
  %11 = alloca ptr, align 8
  %12 = alloca ptr, align 8
  %13 = alloca ptr, align 8
  %14 = alloca ptr, align 8
  %15 = alloca ptr, align 8
  %16 = alloca ptr, align 8
  %17 = alloca i64, align 8
  %18 = alloca ptr, align 8
  %19 = alloca i64, align 8
  %20 = alloca %struct.cbs_st, align 8
  %21 = alloca i8, align 1
  %22 = alloca i16, align 2
  %23 = alloca i16, align 2
  %24 = alloca i32, align 4
  %25 = alloca %struct.cbs_st, align 8
  %26 = alloca i64, align 8
  store ptr %0, ptr %11, align 8, !tbaa !16
  store ptr %1, ptr %12, align 8, !tbaa !6
  store ptr %2, ptr %13, align 8, !tbaa !6
  store ptr %3, ptr %14, align 8, !tbaa !65
  store ptr %4, ptr %15, align 8, !tbaa !65
  store ptr %5, ptr %16, align 8, !tbaa !6
  store i64 %6, ptr %17, align 8, !tbaa !11
  store ptr %7, ptr %18, align 8, !tbaa !6
  store i64 %8, ptr %19, align 8, !tbaa !11
  call void @llvm.lifetime.start.p0(i64 16, ptr %20) #5
  %27 = load ptr, ptr %18, align 8, !tbaa !6
  %28 = load i64, ptr %19, align 8, !tbaa !11
  call void @CBS_init(ptr noundef %20, ptr noundef %27, i64 noundef %28)
  call void @llvm.lifetime.start.p0(i64 1, ptr %21) #5
  call void @llvm.lifetime.start.p0(i64 2, ptr %22) #5
  call void @llvm.lifetime.start.p0(i64 2, ptr %23) #5
  %29 = call i32 @CBS_get_u8(ptr noundef %20, ptr noundef %21)
  %30 = icmp ne i32 %29, 0
  br i1 %30, label %31, label %37

31:                                               ; preds = %9
  %32 = call i32 @CBS_get_u16(ptr noundef %20, ptr noundef %22)
  %33 = icmp ne i32 %32, 0
  br i1 %33, label %34, label %37

34:                                               ; preds = %31
  %35 = call i32 @CBS_get_u16(ptr noundef %20, ptr noundef %23)
  %36 = icmp ne i32 %35, 0
  br i1 %36, label %39, label %37

37:                                               ; preds = %34, %31, %9
  %38 = load ptr, ptr %15, align 8, !tbaa !65
  store i64 5, ptr %38, align 8, !tbaa !11
  store i32 2, ptr %10, align 4
  store i32 1, ptr %24, align 4
  br label %163

39:                                               ; preds = %34
  %40 = load ptr, ptr %11, align 8, !tbaa !16
  %41 = getelementptr inbounds nuw %struct.ssl_st, ptr %40, i32 0, i32 14
  %42 = load ptr, ptr %41, align 8, !tbaa !44
  %43 = getelementptr inbounds nuw %struct.ssl3_state_st, ptr %42, i32 0, i32 4
  %44 = load i8, ptr %43, align 8, !tbaa !67
  %45 = sext i8 %44 to i32
  %46 = icmp ne i32 %45, 0
  br i1 %46, label %47, label %54

47:                                               ; preds = %39
  %48 = load i16, ptr %22, align 2, !tbaa !68
  %49 = zext i16 %48 to i32
  %50 = load ptr, ptr %11, align 8, !tbaa !16
  %51 = getelementptr inbounds nuw %struct.ssl_st, ptr %50, i32 0, i32 0
  %52 = load i32, ptr %51, align 8, !tbaa !69
  %53 = icmp ne i32 %49, %52
  br i1 %53, label %59, label %54

54:                                               ; preds = %47, %39
  %55 = load i16, ptr %22, align 2, !tbaa !68
  %56 = zext i16 %55 to i32
  %57 = ashr i32 %56, 8
  %58 = icmp ne i32 %57, 3
  br i1 %58, label %59, label %61

59:                                               ; preds = %54, %47
  call void @ERR_put_error(i32 noundef 16, i32 noundef 0, i32 noundef 247, ptr noundef @.str, i32 noundef 206)
  %60 = load ptr, ptr %16, align 8, !tbaa !6
  store i8 70, ptr %60, align 1, !tbaa !13
  store i32 3, ptr %10, align 4
  store i32 1, ptr %24, align 4
  br label %163

61:                                               ; preds = %54
  %62 = load i16, ptr %23, align 2, !tbaa !68
  %63 = zext i16 %62 to i32
  %64 = icmp sgt i32 %63, 16704
  br i1 %64, label %65, label %67

65:                                               ; preds = %61
  call void @ERR_put_error(i32 noundef 16, i32 noundef 0, i32 noundef 146, ptr noundef @.str, i32 noundef 213)
  %66 = load ptr, ptr %16, align 8, !tbaa !6
  store i8 22, ptr %66, align 1, !tbaa !13
  store i32 3, ptr %10, align 4
  store i32 1, ptr %24, align 4
  br label %163

67:                                               ; preds = %61
  call void @llvm.lifetime.start.p0(i64 16, ptr %25) #5
  %68 = load i16, ptr %23, align 2, !tbaa !68
  %69 = zext i16 %68 to i64
  %70 = call i32 @CBS_get_bytes(ptr noundef %20, ptr noundef %25, i64 noundef %69)
  %71 = icmp ne i32 %70, 0
  br i1 %71, label %77, label %72

72:                                               ; preds = %67
  %73 = load i16, ptr %23, align 2, !tbaa !68
  %74 = zext i16 %73 to i64
  %75 = add i64 5, %74
  %76 = load ptr, ptr %15, align 8, !tbaa !65
  store i64 %75, ptr %76, align 8, !tbaa !11
  store i32 2, ptr %10, align 4
  store i32 1, ptr %24, align 4
  br label %162

77:                                               ; preds = %67
  %78 = load ptr, ptr %11, align 8, !tbaa !16
  %79 = getelementptr inbounds nuw %struct.ssl_st, ptr %78, i32 0, i32 16
  %80 = load ptr, ptr %79, align 8, !tbaa !70
  %81 = icmp ne ptr %80, null
  br i1 %81, label %82, label %91

82:                                               ; preds = %77
  %83 = load ptr, ptr %11, align 8, !tbaa !16
  %84 = getelementptr inbounds nuw %struct.ssl_st, ptr %83, i32 0, i32 16
  %85 = load ptr, ptr %84, align 8, !tbaa !70
  %86 = load ptr, ptr %18, align 8, !tbaa !6
  %87 = load ptr, ptr %11, align 8, !tbaa !16
  %88 = load ptr, ptr %11, align 8, !tbaa !16
  %89 = getelementptr inbounds nuw %struct.ssl_st, ptr %88, i32 0, i32 17
  %90 = load ptr, ptr %89, align 8, !tbaa !71
  call void %85(i32 noundef 0, i32 noundef 0, i32 noundef 256, ptr noundef %86, i64 noundef 5, ptr noundef %87, ptr noundef %90)
  br label %91

91:                                               ; preds = %82, %77
  call void @llvm.lifetime.start.p0(i64 8, ptr %26) #5
  %92 = load ptr, ptr %11, align 8, !tbaa !16
  %93 = getelementptr inbounds nuw %struct.ssl_st, ptr %92, i32 0, i32 14
  %94 = load ptr, ptr %93, align 8, !tbaa !44
  %95 = getelementptr inbounds nuw %struct.ssl3_state_st, ptr %94, i32 0, i32 24
  %96 = load ptr, ptr %95, align 8, !tbaa !45
  %97 = load ptr, ptr %13, align 8, !tbaa !6
  %98 = load i64, ptr %17, align 8, !tbaa !11
  %99 = load i8, ptr %21, align 1, !tbaa !13
  %100 = load i16, ptr %22, align 2, !tbaa !68
  %101 = load ptr, ptr %11, align 8, !tbaa !16
  %102 = getelementptr inbounds nuw %struct.ssl_st, ptr %101, i32 0, i32 14
  %103 = load ptr, ptr %102, align 8, !tbaa !44
  %104 = getelementptr inbounds nuw %struct.ssl3_state_st, ptr %103, i32 0, i32 0
  %105 = getelementptr inbounds [8 x i8], ptr %104, i64 0, i64 0
  %106 = call ptr @CBS_data(ptr noundef %25)
  %107 = call i64 @CBS_len(ptr noundef %25)
  %108 = call i32 @SSL_AEAD_CTX_open(ptr noundef %96, ptr noundef %97, ptr noundef %26, i64 noundef %98, i8 noundef zeroext %99, i16 noundef zeroext %100, ptr noundef %105, ptr noundef %106, i64 noundef %107)
  %109 = icmp ne i32 %108, 0
  br i1 %109, label %112, label %110

110:                                              ; preds = %91
  call void @ERR_put_error(i32 noundef 16, i32 noundef 0, i32 noundef 139, ptr noundef @.str, i32 noundef 235)
  %111 = load ptr, ptr %16, align 8, !tbaa !6
  store i8 20, ptr %111, align 1, !tbaa !13
  store i32 3, ptr %10, align 4
  store i32 1, ptr %24, align 4
  br label %161

112:                                              ; preds = %91
  %113 = load ptr, ptr %11, align 8, !tbaa !16
  %114 = getelementptr inbounds nuw %struct.ssl_st, ptr %113, i32 0, i32 14
  %115 = load ptr, ptr %114, align 8, !tbaa !44
  %116 = getelementptr inbounds nuw %struct.ssl3_state_st, ptr %115, i32 0, i32 0
  %117 = getelementptr inbounds [8 x i8], ptr %116, i64 0, i64 0
  %118 = call i32 @ssl_record_sequence_update(ptr noundef %117, i64 noundef 8)
  %119 = icmp ne i32 %118, 0
  br i1 %119, label %122, label %120

120:                                              ; preds = %112
  %121 = load ptr, ptr %16, align 8, !tbaa !6
  store i8 80, ptr %121, align 1, !tbaa !13
  store i32 3, ptr %10, align 4
  store i32 1, ptr %24, align 4
  br label %161

122:                                              ; preds = %112
  %123 = load i64, ptr %26, align 8, !tbaa !11
  %124 = icmp ugt i64 %123, 16384
  br i1 %124, label %125, label %127

125:                                              ; preds = %122
  call void @ERR_put_error(i32 noundef 16, i32 noundef 0, i32 noundef 136, ptr noundef @.str, i32 noundef 246)
  %126 = load ptr, ptr %16, align 8, !tbaa !6
  store i8 22, ptr %126, align 1, !tbaa !13
  store i32 3, ptr %10, align 4
  store i32 1, ptr %24, align 4
  br label %161

127:                                              ; preds = %122
  %128 = load i64, ptr %26, align 8, !tbaa !11
  %129 = icmp eq i64 %128, 0
  br i1 %129, label %130, label %147

130:                                              ; preds = %127
  %131 = load ptr, ptr %11, align 8, !tbaa !16
  %132 = getelementptr inbounds nuw %struct.ssl_st, ptr %131, i32 0, i32 14
  %133 = load ptr, ptr %132, align 8, !tbaa !44
  %134 = getelementptr inbounds nuw %struct.ssl3_state_st, ptr %133, i32 0, i32 22
  %135 = load i8, ptr %134, align 8, !tbaa !72
  %136 = add i8 %135, 1
  store i8 %136, ptr %134, align 8, !tbaa !72
  %137 = load ptr, ptr %11, align 8, !tbaa !16
  %138 = getelementptr inbounds nuw %struct.ssl_st, ptr %137, i32 0, i32 14
  %139 = load ptr, ptr %138, align 8, !tbaa !44
  %140 = getelementptr inbounds nuw %struct.ssl3_state_st, ptr %139, i32 0, i32 22
  %141 = load i8, ptr %140, align 8, !tbaa !72
  %142 = zext i8 %141 to i32
  %143 = icmp sgt i32 %142, 32
  br i1 %143, label %144, label %146

144:                                              ; preds = %130
  call void @ERR_put_error(i32 noundef 16, i32 noundef 0, i32 noundef 219, ptr noundef @.str, i32 noundef 255)
  %145 = load ptr, ptr %16, align 8, !tbaa !6
  store i8 10, ptr %145, align 1, !tbaa !13
  store i32 3, ptr %10, align 4
  store i32 1, ptr %24, align 4
  br label %161

146:                                              ; preds = %130
  br label %152

147:                                              ; preds = %127
  %148 = load ptr, ptr %11, align 8, !tbaa !16
  %149 = getelementptr inbounds nuw %struct.ssl_st, ptr %148, i32 0, i32 14
  %150 = load ptr, ptr %149, align 8, !tbaa !44
  %151 = getelementptr inbounds nuw %struct.ssl3_state_st, ptr %150, i32 0, i32 22
  store i8 0, ptr %151, align 8, !tbaa !72
  br label %152

152:                                              ; preds = %147, %146
  %153 = load i8, ptr %21, align 1, !tbaa !13
  %154 = load ptr, ptr %12, align 8, !tbaa !6
  store i8 %153, ptr %154, align 1, !tbaa !13
  %155 = load i64, ptr %26, align 8, !tbaa !11
  %156 = load ptr, ptr %14, align 8, !tbaa !65
  store i64 %155, ptr %156, align 8, !tbaa !11
  %157 = load i64, ptr %19, align 8, !tbaa !11
  %158 = call i64 @CBS_len(ptr noundef %20)
  %159 = sub i64 %157, %158
  %160 = load ptr, ptr %15, align 8, !tbaa !65
  store i64 %159, ptr %160, align 8, !tbaa !11
  store i32 0, ptr %10, align 4
  store i32 1, ptr %24, align 4
  br label %161

161:                                              ; preds = %152, %144, %125, %120, %110
  call void @llvm.lifetime.end.p0(i64 8, ptr %26) #5
  br label %162

162:                                              ; preds = %161, %72
  call void @llvm.lifetime.end.p0(i64 16, ptr %25) #5
  br label %163

163:                                              ; preds = %162, %65, %59, %37
  call void @llvm.lifetime.end.p0(i64 2, ptr %23) #5
  call void @llvm.lifetime.end.p0(i64 2, ptr %22) #5
  call void @llvm.lifetime.end.p0(i64 1, ptr %21) #5
  call void @llvm.lifetime.end.p0(i64 16, ptr %20) #5
  %164 = load i32, ptr %10, align 4
  ret i32 %164
}