; Function Attrs: nounwind uwtable
define hidden range(i32 0, 4) i32 @tls_open_record(ptr noundef %0, ptr noundef writeonly captures(none) %1, ptr noundef %2, ptr noundef writeonly captures(none) %3, ptr noundef writeonly captures(none) %4, ptr noundef writeonly captures(none) %5, i64 noundef %6, ptr noundef %7, i64 noundef %8) local_unnamed_addr #0 {
  %10 = alloca %struct.cbs_st, align 8
  %11 = alloca i8, align 1
  %12 = alloca i16, align 2
  %13 = alloca i16, align 2
  %14 = alloca %struct.cbs_st, align 8
  %15 = alloca i64, align 8
  call void @llvm.lifetime.start.p0(i64 16, ptr nonnull %10) #4
  call void @CBS_init(ptr noundef nonnull %10, ptr noundef %7, i64 noundef %8) #4
  call void @llvm.lifetime.start.p0(i64 1, ptr nonnull %11) #4
  call void @llvm.lifetime.start.p0(i64 2, ptr nonnull %12) #4
  call void @llvm.lifetime.start.p0(i64 2, ptr nonnull %13) #4
  %16 = call i32 @CBS_get_u8(ptr noundef nonnull %10, ptr noundef nonnull %11) #4
  %.not = icmp eq i32 %16, 0
  br i1 %.not, label %21, label %17

17:                                               ; preds = %9
  %18 = call i32 @CBS_get_u16(ptr noundef nonnull %10, ptr noundef nonnull %12) #4
  %.not31 = icmp eq i32 %18, 0
  br i1 %.not31, label %21, label %19

19:                                               ; preds = %17
  %20 = call i32 @CBS_get_u16(ptr noundef nonnull %10, ptr noundef nonnull %13) #4
  %.not32 = icmp eq i32 %20, 0
  br i1 %.not32, label %21, label %22

21:                                               ; preds = %19, %17, %9
  store i64 5, ptr %4, align 8, !tbaa !61
  br label %83

22:                                               ; preds = %19
  %23 = getelementptr inbounds nuw i8, ptr %0, i64 80
  %24 = load ptr, ptr %23, align 8, !tbaa !40
  %25 = getelementptr inbounds nuw i8, ptr %24, i64 80
  %26 = load i8, ptr %25, align 8, !tbaa !62
  %.not33 = icmp eq i8 %26, 0
  %.pre = load i16, ptr %12, align 2, !tbaa !63
  br i1 %.not33, label %30, label %27

27:                                               ; preds = %22
  %28 = zext i16 %.pre to i32
  %29 = load i32, ptr %0, align 8, !tbaa !64
  %.not34 = icmp eq i32 %29, %28
  %.mask = and i16 %.pre, -256
  %.not35 = icmp eq i16 %.mask, 768
  %or.cond = and i1 %.not34, %.not35
  br i1 %or.cond, label %32, label %31

30:                                               ; preds = %22
  %.mask.old = and i16 %.pre, -256
  %.not35.old = icmp eq i16 %.mask.old, 768
  br i1 %.not35.old, label %32, label %31

31:                                               ; preds = %30, %27
  call void @ERR_put_error(i32 noundef 16, i32 noundef 0, i32 noundef 247, ptr noundef nonnull @.str, i32 noundef 206) #4
  store i8 70, ptr %5, align 1, !tbaa !6
  br label %83

32:                                               ; preds = %27, %30
  %33 = load i16, ptr %13, align 2, !tbaa !63
  %34 = icmp ugt i16 %33, 16704
  br i1 %34, label %35, label %36

35:                                               ; preds = %32
  call void @ERR_put_error(i32 noundef 16, i32 noundef 0, i32 noundef 146, ptr noundef nonnull @.str, i32 noundef 213) #4
  store i8 22, ptr %5, align 1, !tbaa !6
  br label %83

36:                                               ; preds = %32
  call void @llvm.lifetime.start.p0(i64 16, ptr nonnull %14) #4
  %37 = zext nneg i16 %33 to i64
  %38 = call i32 @CBS_get_bytes(ptr noundef nonnull %10, ptr noundef nonnull %14, i64 noundef %37) #4
  %.not36 = icmp eq i32 %38, 0
  br i1 %.not36, label %39, label %43

39:                                               ; preds = %36
  %40 = load i16, ptr %13, align 2, !tbaa !63
  %41 = zext i16 %40 to i64
  %42 = add nuw nsw i64 %41, 5
  store i64 %42, ptr %4, align 8, !tbaa !61
  br label %82

43:                                               ; preds = %36
  %44 = getelementptr inbounds nuw i8, ptr %0, i64 96
  %45 = load ptr, ptr %44, align 8, !tbaa !65
  %.not37 = icmp eq ptr %45, null
  br i1 %.not37, label %49, label %46

46:                                               ; preds = %43
  %47 = getelementptr inbounds nuw i8, ptr %0, i64 104
  %48 = load ptr, ptr %47, align 8, !tbaa !66
  call void %45(i32 noundef 0, i32 noundef 0, i32 noundef 256, ptr noundef %7, i64 noundef 5, ptr noundef nonnull %0, ptr noundef %48) #4
  br label %49

49:                                               ; preds = %46, %43
  call void @llvm.lifetime.start.p0(i64 8, ptr nonnull %15) #4
  %50 = load ptr, ptr %23, align 8, !tbaa !40
  %51 = getelementptr inbounds nuw i8, ptr %50, i64 264
  %52 = load ptr, ptr %51, align 8, !tbaa !41
  %53 = load i8, ptr %11, align 1, !tbaa !6
  %54 = load i16, ptr %12, align 2, !tbaa !63
  %55 = call ptr @CBS_data(ptr noundef nonnull %14) #4
  %56 = call i64 @CBS_len(ptr noundef nonnull %14) #4
  %57 = call i32 @SSL_AEAD_CTX_open(ptr noundef %52, ptr noundef %2, ptr noundef nonnull %15, i64 noundef %6, i8 noundef zeroext %53, i16 noundef zeroext %54, ptr noundef %50, ptr noundef %55, i64 noundef %56) #4
  %.not38 = icmp eq i32 %57, 0
  br i1 %.not38, label %58, label %59

58:                                               ; preds = %49
  call void @ERR_put_error(i32 noundef 16, i32 noundef 0, i32 noundef 139, ptr noundef nonnull @.str, i32 noundef 235) #4
  store i8 20, ptr %5, align 1, !tbaa !6
  br label %81

59:                                               ; preds = %49
  %60 = load ptr, ptr %23, align 8, !tbaa !40
  %61 = call i32 @ssl_record_sequence_update(ptr noundef %60, i64 noundef 8)
  %.not39 = icmp eq i32 %61, 0
  br i1 %.not39, label %62, label %63

62:                                               ; preds = %59
  store i8 80, ptr %5, align 1, !tbaa !6
  br label %81

63:                                               ; preds = %59
  %64 = load i64, ptr %15, align 8, !tbaa !61
  %65 = icmp ugt i64 %64, 16384
  br i1 %65, label %66, label %67

66:                                               ; preds = %63
  call void @ERR_put_error(i32 noundef 16, i32 noundef 0, i32 noundef 136, ptr noundef nonnull @.str, i32 noundef 246) #4
  store i8 22, ptr %5, align 1, !tbaa !6
  br label %81

67:                                               ; preds = %63
  %68 = icmp eq i64 %64, 0
  %69 = load ptr, ptr %23, align 8, !tbaa !40
  %70 = getelementptr inbounds nuw i8, ptr %69, i64 256
  br i1 %68, label %71, label %76

71:                                               ; preds = %67
  %72 = load i8, ptr %70, align 8, !tbaa !67
  %73 = add i8 %72, 1
  store i8 %73, ptr %70, align 8, !tbaa !67
  %74 = icmp ugt i8 %73, 32
  br i1 %74, label %75, label %77

75:                                               ; preds = %71
  call void @ERR_put_error(i32 noundef 16, i32 noundef 0, i32 noundef 219, ptr noundef nonnull @.str, i32 noundef 255) #4
  store i8 10, ptr %5, align 1, !tbaa !6
  br label %81

76:                                               ; preds = %67
  store i8 0, ptr %70, align 8, !tbaa !67
  br label %77

77:                                               ; preds = %71, %76
  %78 = load i8, ptr %11, align 1, !tbaa !6
  store i8 %78, ptr %1, align 1, !tbaa !6
  store i64 %64, ptr %3, align 8, !tbaa !61
  %79 = call i64 @CBS_len(ptr noundef nonnull %10) #4
  %80 = sub i64 %8, %79
  store i64 %80, ptr %4, align 8, !tbaa !61
  br label %81

81:                                               ; preds = %77, %75, %66, %62, %58
  %.2 = phi i32 [ 3, %66 ], [ 3, %75 ], [ 0, %77 ], [ 3, %62 ], [ 3, %58 ]
  call void @llvm.lifetime.end.p0(i64 8, ptr nonnull %15) #4
  br label %82

82:                                               ; preds = %81, %39
  %.1 = phi i32 [ %.2, %81 ], [ 2, %39 ]
  call void @llvm.lifetime.end.p0(i64 16, ptr nonnull %14) #4
  br label %83

83:                                               ; preds = %82, %35, %31, %21
  %.0 = phi i32 [ 3, %31 ], [ 3, %35 ], [ %.1, %82 ], [ 2, %21 ]
  call void @llvm.lifetime.end.p0(i64 2, ptr nonnull %13) #4
  call void @llvm.lifetime.end.p0(i64 2, ptr nonnull %12) #4
  call void @llvm.lifetime.end.p0(i64 1, ptr nonnull %11) #4
  call void @llvm.lifetime.end.p0(i64 16, ptr nonnull %10) #4
  ret i32 %.0
}